; Function Attrs: nounwind uwtable
define internal i32 @blake2b512_internal_final(ptr noundef %0, ptr noundef %1, ptr noundef writeonly captures(none) %2, i64 noundef %3) #1 {
  %5 = tail call i32 @ossl_prov_is_running() #6
  %.not = icmp eq i32 %5, 0
  br i1 %.not, label %15, label %6

6:                                                ; preds = %4
  %7 = getelementptr inbounds nuw i8, ptr %0, i64 232
  %8 = load i64, ptr %7, align 8, !tbaa !23
  store i64 %8, ptr %2, align 8, !tbaa !15
  %9 = icmp eq i64 %3, 0
  br i1 %9, label %15, label %10

10:                                               ; preds = %6
  %11 = icmp ult i64 %3, %8
  br i1 %11, label %12, label %13

12:                                               ; preds = %10
  tail call void @ERR_new() #6
  tail call void @ERR_set_debug(ptr noundef nonnull @.str.1, i32 noundef 198, ptr noundef nonnull @__func__.blake2b512_internal_final) #6
  tail call void (i32, i32, ptr, ...) @ERR_set_error(i32 noundef 57, i32 noundef 218, ptr noundef null) #6
  br label %15

13:                                               ; preds = %10
  %14 = tail call i32 @ossl_blake2b_final(ptr noundef %1, ptr noundef nonnull %0) #6
  br label %15

15:                                               ; preds = %6, %4, %13, %12
  %.0 = phi i32 [ 0, %12 ], [ %14, %13 ], [ 0, %4 ], [ 1, %6 ]
  ret i32 %.0
}